; Function Attrs: nounwind uwtable
define void @bufferevent_init_generic_timeout_cbs_(ptr noundef %0) local_unnamed_addr #0 {
  %2 = getelementptr inbounds nuw i8, ptr %0, i64 16
  %3 = load ptr, ptr %0, align 8
  %4 = tail call i32 @event_assign(ptr noundef nonnull %2, ptr noundef %3, i32 noundef -1, i16 noundef signext 64, ptr noundef nonnull @bufferevent_generic_read_timeout_cb, ptr noundef nonnull %0) #7
  %5 = getelementptr inbounds nuw i8, ptr %0, i64 136
  %6 = load ptr, ptr %0, align 8
  %7 = tail call i32 @event_assign(ptr noundef nonnull %5, ptr noundef %6, i32 noundef -1, i16 noundef signext 64, ptr noundef nonnull @bufferevent_generic_write_timeout_cb, ptr noundef nonnull %0) #7
  ret void
}